target datalayout = "e-m:e-p270:32:32-p271:32:32-p272:64:64-i64:64-i128:128-f80:128-n8:16:32:64-S128"
target triple = "x86_64-pc-linux-gnu"

; Function Attrs: nounwind uwtable
define internal void @butterflies_float_c(ptr noalias noundef %0, ptr noalias noundef %1, i32 noundef %2) #0 {
  %4 = alloca ptr, align 8
  %5 = alloca ptr, align 8
  %6 = alloca i32, align 4
  %7 = alloca i32, align 4
  %8 = alloca float, align 4
  store ptr %0, ptr %4, align 8, !tbaa !32
  store ptr %1, ptr %5, align 8, !tbaa !32
  store i32 %2, ptr %6, align 4, !tbaa !15
  call void @llvm.lifetime.start.p0(i64 4, ptr %7) #5
  store i32 0, ptr %7, align 4, !tbaa !15
  br label %9

9:                                                ; preds = %41, %3
  %10 = load i32, ptr %7, align 4, !tbaa !15
  %11 = load i32, ptr %6, align 4, !tbaa !15
  %12 = icmp slt i32 %10, %11
  br i1 %12, label %13, label %44

13:                                               ; preds = %9
  call void @llvm.lifetime.start.p0(i64 4, ptr %8) #5
  %14 = load ptr, ptr %4, align 8, !tbaa !32
  %15 = load i32, ptr %7, align 4, !tbaa !15
  %16 = sext i32 %15 to i64
  %17 = getelementptr inbounds float, ptr %14, i64 %16
  %18 = load float, ptr %17, align 4, !tbaa !34
  %19 = load ptr, ptr %5, align 8, !tbaa !32
  %20 = load i32, ptr %7, align 4, !tbaa !15
  %21 = sext i32 %20 to i64
  %22 = getelementptr inbounds float, ptr %19, i64 %21
  %23 = load float, ptr %22, align 4, !tbaa !34
  %24 = fsub nsz float %18, %23
  store float %24, ptr %8, align 4, !tbaa !34
  %25 = load ptr, ptr %5, align 8, !tbaa !32
  %26 = load i32, ptr %7, align 4, !tbaa !15
  %27 = sext i32 %26 to i64
  %28 = getelementptr inbounds float, ptr %25, i64 %27
  %29 = load float, ptr %28, align 4, !tbaa !34
  %30 = load ptr, ptr %4, align 8, !tbaa !32
  %31 = load i32, ptr %7, align 4, !tbaa !15
  %32 = sext i32 %31 to i64
  %33 = getelementptr inbounds float, ptr %30, i64 %32
  %34 = load float, ptr %33, align 4, !tbaa !34
  %35 = fadd nsz float %34, %29
  store float %35, ptr %33, align 4, !tbaa !34
  %36 = load float, ptr %8, align 4, !tbaa !34
  %37 = load ptr, ptr %5, align 8, !tbaa !32
  %38 = load i32, ptr %7, align 4, !tbaa !15
  %39 = sext i32 %38 to i64
  %40 = getelementptr inbounds float, ptr %37, i64 %39
  store float %36, ptr %40, align 4, !tbaa !34
  call void @llvm.lifetime.end.p0(i64 4, ptr %8) #5
  br label %41

41:                                               ; preds = %13
  %42 = load i32, ptr %7, align 4, !tbaa !15
  %43 = add nsw i32 %42, 1
  store i32 %43, ptr %7, align 4, !tbaa !15
  br label %9, !llvm.loop !45

44:                                               ; preds = %9
  call void @llvm.lifetime.end.p0(i64 4, ptr %7) #5
  ret void
}